target datalayout = "e-m:e-p270:32:32-p271:32:32-p272:64:64-i64:64-i128:128-f80:128-n8:16:32:64-S128"
target triple = "x86_64-pc-linux-gnu"

%struct.IsoConnInfo = type { ptr, i32, ptr, ptr, ptr, i32 }

@nconns = internal global i32 0, align 4
@conns = internal global ptr null, align 8

; Function Attrs: nounwind uwtable
define internal void @disconnect_atexit() #0 {
  %1 = alloca i32, align 4
  call void @llvm.lifetime.start.p0(i64 4, ptr %1) #11
  store i32 0, ptr %1, align 4
  br label %2

2:                                                ; preds = %22, %0
  %3 = load i32, ptr %1, align 4
  %4 = load i32, ptr @nconns, align 4
  %5 = icmp slt i32 %3, %4
  br i1 %5, label %6, label %25

6:                                                ; preds = %2
  %7 = load ptr, ptr @conns, align 8
  %8 = load i32, ptr %1, align 4
  %9 = sext i32 %8 to i64
  %10 = getelementptr inbounds %struct.IsoConnInfo, ptr %7, i64 %9
  %11 = getelementptr inbounds nuw %struct.IsoConnInfo, ptr %10, i32 0, i32 0
  %12 = load ptr, ptr %11, align 8
  %13 = icmp ne ptr %12, null
  br i1 %13, label %14, label %21

14:                                               ; preds = %6
  %15 = load ptr, ptr @conns, align 8
  %16 = load i32, ptr %1, align 4
  %17 = sext i32 %16 to i64
  %18 = getelementptr inbounds %struct.IsoConnInfo, ptr %15, i64 %17
  %19 = getelementptr inbounds nuw %struct.IsoConnInfo, ptr %18, i32 0, i32 0
  %20 = load ptr, ptr %19, align 8
  call void @PQfinish(ptr noundef %20)
  br label %21

21:                                               ; preds = %14, %6
  br label %22

22:                                               ; preds = %21
  %23 = load i32, ptr %1, align 4
  %24 = add i32 %23, 1
  store i32 %24, ptr %1, align 4
  br label %2, !llvm.loop !21

25:                                               ; preds = %2
  call void @llvm.lifetime.end.p0(i64 4, ptr %1) #11
  ret void
}