; Function Attrs: nounwind uwtable
define internal void @disconnect_atexit() #0 {
  %1 = load i32, ptr @nconns, align 4
  %2 = icmp sgt i32 %1, 0
  br i1 %2, label %.lr.ph.preheader, label %._crit_edge

.lr.ph.preheader:                                 ; preds = %0
  %.pre7 = load ptr, ptr @conns, align 8
  br label %.lr.ph

.lr.ph:                                           ; preds = %.lr.ph.preheader, %8
  %3 = phi i32 [ %1, %.lr.ph.preheader ], [ %9, %8 ]
  %4 = phi ptr [ %.pre7, %.lr.ph.preheader ], [ %10, %8 ]
  %indvars.iv = phi i64 [ 0, %.lr.ph.preheader ], [ %indvars.iv.next, %8 ]
  %5 = getelementptr inbounds nuw %struct.IsoConnInfo, ptr %4, i64 %indvars.iv
  %6 = load ptr, ptr %5, align 8
  %.not = icmp eq ptr %6, null
  br i1 %.not, label %8, label %7

7:                                                ; preds = %.lr.ph
  tail call void @PQfinish(ptr noundef nonnull %6) #17
  %.pre = load ptr, ptr @conns, align 8
  %.pre8 = load i32, ptr @nconns, align 4
  br label %8

8:                                                ; preds = %.lr.ph, %7
  %9 = phi i32 [ %3, %.lr.ph ], [ %.pre8, %7 ]
  %10 = phi ptr [ %4, %.lr.ph ], [ %.pre, %7 ]
  %indvars.iv.next = add nuw nsw i64 %indvars.iv, 1
  %11 = sext i32 %9 to i64
  %12 = icmp slt i64 %indvars.iv.next, %11
  br i1 %12, label %.lr.ph, label %._crit_edge, !llvm.loop !26

._crit_edge:                                      ; preds = %8, %0
  ret void
}